---
triple:          'arm64-apple-darwin'
binary-path:     '/Users/kali/Desktop/work/Zrobione'
relocations:
  - { offset: 0x1EDF8, size: 0x8, addend: 0x0, symName: __ZStL8__ioinit, symObjAddr: 0x8D726, symBinAddr: 0x10000C000, symSize: 0x0 }
  - { offset: 0x1F722, size: 0x8, addend: 0x0, symName: __GLOBAL__sub_I_Zrobione.cpp, symObjAddr: 0x31F0, symBinAddr: 0x1000037D8, symSize: 0x14 }
  - { offset: 0x1F73A, size: 0x8, addend: 0x0, symName: __Z41__static_initialization_and_destruction_0v, symObjAddr: 0x31B4, symBinAddr: 0x10000379C, symSize: 0x3C }
  - { offset: 0x1F752, size: 0x8, addend: 0x0, symName: __ZNSt11__copy_moveILb0ELb0ESt26random_access_iterator_tagE12__assign_oneIxKxEEvPT_PT0_, symObjAddr: 0x2FEC, symBinAddr: 0x100003774, symSize: 0x28 }
  - { offset: 0x1F79F, size: 0x8, addend: 0x0, symName: __ZNSt11__copy_moveILb0ELb1ESt26random_access_iterator_tagE8__copy_mIKxxEEPT0_PT_S7_S5_, symObjAddr: 0x2F5C, symBinAddr: 0x1000036E4, symSize: 0x90 }
  - { offset: 0x1F80E, size: 0x8, addend: 0x0, symName: __ZSt14__copy_move_a2ILb0EPKxPxET1_T0_S4_S3_, symObjAddr: 0x2F30, symBinAddr: 0x1000036B8, symSize: 0x2C }
  - { offset: 0x1F87A, size: 0x8, addend: 0x0, symName: __ZNK9__gnu_cxx17__normal_iteratorIPKxSt6vectorIxSaIxEEE4baseEv, symObjAddr: 0x2F1C, symBinAddr: 0x1000036A4, symSize: 0x14 }
  - { offset: 0x1F8A4, size: 0x8, addend: 0x0, symName: __ZNK9__gnu_cxx17__normal_iteratorIPKSt6vectorIxSaIxEES1_IS3_SaIS3_EEE4baseEv, symObjAddr: 0x2F08, symBinAddr: 0x100003690, symSize: 0x14 }
  - { offset: 0x1F8CA, size: 0x8, addend: 0x0, symName: __ZSt12__niter_wrapIPxET_RKS1_S1_, symObjAddr: 0x2EF0, symBinAddr: 0x100003678, symSize: 0x18 }
  - { offset: 0x1F906, size: 0x8, addend: 0x0, symName: __ZSt14__copy_move_a1ILb0EPKxPxET1_T0_S4_S3_, symObjAddr: 0x2EC4, symBinAddr: 0x10000364C, symSize: 0x2C }
  - { offset: 0x1F96E, size: 0x8, addend: 0x0, symName: __ZSt12__niter_baseIPxET_S1_, symObjAddr: 0x2EB0, symBinAddr: 0x100003638, symSize: 0x14 }
  - { offset: 0x1F9A1, size: 0x8, addend: 0x0, symName: __ZSt12__niter_baseIPKxSt6vectorIxSaIxEEET_N9__gnu_cxx17__normal_iteratorIS5_T0_EE, symObjAddr: 0x2E90, symBinAddr: 0x100003618, symSize: 0x20 }
  - { offset: 0x1F9E1, size: 0x8, addend: 0x0, symName: __ZNK9__gnu_cxx17__normal_iteratorIPKSt6vectorIxSaIxEES1_IS3_SaIS3_EEEdeEv, symObjAddr: 0x2E78, symBinAddr: 0x100003600, symSize: 0x18 }
  - { offset: 0x1FA0B, size: 0x8, addend: 0x0, symName: __ZN9__gnu_cxx17__normal_iteratorIPKSt6vectorIxSaIxEES1_IS3_SaIS3_EEEppEv, symObjAddr: 0x2E50, symBinAddr: 0x1000035D8, symSize: 0x28 }
  - { offset: 0x1FA37, size: 0x8, addend: 0x0, symName: __ZN9__gnu_cxxneIPKSt6vectorIxSaIxEES1_IS3_SaIS3_EEEEbRKNS_17__normal_iteratorIT_T0_EESD_, symObjAddr: 0x2E0C, symBinAddr: 0x100003594, symSize: 0x44 }
  - { offset: 0x1FA84, size: 0x8, addend: 0x0, symName: __ZSt13__copy_move_aILb0EN9__gnu_cxx17__normal_iteratorIPKxSt6vectorIxSaIxEEEEPxET1_T0_SA_S9_, symObjAddr: 0x2DAC, symBinAddr: 0x100003534, symSize: 0x60 }
  - { offset: 0x1FAEC, size: 0x8, addend: 0x0, symName: __ZSt12__miter_baseIN9__gnu_cxx17__normal_iteratorIPKxSt6vectorIxSaIxEEEEET_S8_, symObjAddr: 0x2D98, symBinAddr: 0x100003520, symSize: 0x14 }
  - { offset: 0x1FB1F, size: 0x8, addend: 0x0, symName: __ZSt16__do_uninit_copyIN9__gnu_cxx17__normal_iteratorIPKSt6vectorIxSaIxEES2_IS4_SaIS4_EEEEPS4_ET0_T_SC_SB_, symObjAddr: 0x2CF0, symBinAddr: 0x100003478, symSize: 0xA8 }
  - { offset: 0x1FB8A, size: 0x8, addend: 0x0, symName: __ZSt4copyIN9__gnu_cxx17__normal_iteratorIPKxSt6vectorIxSaIxEEEEPxET0_T_SA_S9_, symObjAddr: 0x2CA8, symBinAddr: 0x100003430, symSize: 0x48 }
  - { offset: 0x1FBE8, size: 0x8, addend: 0x0, symName: __ZNSt20__uninitialized_copyILb0EE13__uninit_copyIN9__gnu_cxx17__normal_iteratorIPKSt6vectorIxSaIxEES4_IS6_SaIS6_EEEEPS6_EET0_T_SE_SD_, symObjAddr: 0x2C7C, symBinAddr: 0x100003404, symSize: 0x2C }
  - { offset: 0x1FC43, size: 0x8, addend: 0x0, symName: __ZNSt20__uninitialized_copyILb1EE13__uninit_copyIN9__gnu_cxx17__normal_iteratorIPKxSt6vectorIxSaIxEEEEPxEET0_T_SC_SB_, symObjAddr: 0x2C50, symBinAddr: 0x1000033D8, symSize: 0x2C }
  - { offset: 0x1FC9E, size: 0x8, addend: 0x0, symName: __ZSt18uninitialized_copyIN9__gnu_cxx17__normal_iteratorIPKSt6vectorIxSaIxEES2_IS4_SaIS4_EEEEPS4_ET0_T_SC_SB_, symObjAddr: 0x2C1C, symBinAddr: 0x1000033A4, symSize: 0x34 }
  - { offset: 0x1FD45, size: 0x8, addend: 0x0, symName: __ZN9__gnu_cxx17__normal_iteratorIPKSt6vectorIxSaIxEES1_IS3_SaIS3_EEEC1ERKS5_, symObjAddr: 0x2BF4, symBinAddr: 0x10000337C, symSize: 0x28 }
  - { offset: 0x1FD86, size: 0x8, addend: 0x0, symName: __ZSt18uninitialized_copyIN9__gnu_cxx17__normal_iteratorIPKxSt6vectorIxSaIxEEEEPxET0_T_SA_S9_, symObjAddr: 0x2BB8, symBinAddr: 0x100003340, symSize: 0x3C }
  - { offset: 0x1FE2D, size: 0x8, addend: 0x0, symName: __ZN9__gnu_cxx17__normal_iteratorIPKxSt6vectorIxSaIxEEEC1ERKS2_, symObjAddr: 0x2B90, symBinAddr: 0x100003318, symSize: 0x28 }
  - { offset: 0x1FE6E, size: 0x8, addend: 0x0, symName: __ZSt22__uninitialized_copy_aIN9__gnu_cxx17__normal_iteratorIPKSt6vectorIxSaIxEES2_IS4_SaIS4_EEEEPS4_S4_ET0_T_SC_SB_RSaIT1_E, symObjAddr: 0x2B60, symBinAddr: 0x1000032E8, symSize: 0x30 }
  - { offset: 0x1FEE2, size: 0x8, addend: 0x0, symName: __ZNKSt6vectorIS_IxSaIxEESaIS1_EE3endEv, symObjAddr: 0x2B38, symBinAddr: 0x1000032C0, symSize: 0x28 }
  - { offset: 0x1FF0C, size: 0x8, addend: 0x0, symName: __ZNKSt6vectorIS_IxSaIxEESaIS1_EE5beginEv, symObjAddr: 0x2B14, symBinAddr: 0x10000329C, symSize: 0x24 }
  - { offset: 0x1FF4B, size: 0x8, addend: 0x0, symName: __ZNKSt12_Vector_baseISt6vectorIxSaIxEESaIS2_EE19_M_get_Tp_allocatorEv, symObjAddr: 0x2B00, symBinAddr: 0x100003288, symSize: 0x14 }
  - { offset: 0x1FF75, size: 0x8, addend: 0x0, symName: __ZNKSt6vectorIS_IxSaIxEESaIS1_EE4sizeEv, symObjAddr: 0x2ACC, symBinAddr: 0x100003254, symSize: 0x34 }
  - { offset: 0x1FF9B, size: 0x8, addend: 0x0, symName: __ZSt22__uninitialized_copy_aIN9__gnu_cxx17__normal_iteratorIPKxSt6vectorIxSaIxEEEEPxxET0_T_SA_S9_RSaIT1_E, symObjAddr: 0x2A9C, symBinAddr: 0x100003224, symSize: 0x30 }
  - { offset: 0x2000F, size: 0x8, addend: 0x0, symName: __ZNKSt6vectorIxSaIxEE3endEv, symObjAddr: 0x2A74, symBinAddr: 0x1000031FC, symSize: 0x28 }
  - { offset: 0x20039, size: 0x8, addend: 0x0, symName: __ZNKSt6vectorIxSaIxEE5beginEv, symObjAddr: 0x2A50, symBinAddr: 0x1000031D8, symSize: 0x24 }
  - { offset: 0x20078, size: 0x8, addend: 0x0, symName: __ZNKSt12_Vector_baseIxSaIxEE19_M_get_Tp_allocatorEv, symObjAddr: 0x2A3C, symBinAddr: 0x1000031C4, symSize: 0x14 }
  - { offset: 0x200A2, size: 0x8, addend: 0x0, symName: __ZNKSt6vectorIxSaIxEE4sizeEv, symObjAddr: 0x2A14, symBinAddr: 0x10000319C, symSize: 0x28 }
  - { offset: 0x200C8, size: 0x8, addend: 0x0, symName: __ZSt9__fill_a1IPxxEN9__gnu_cxx11__enable_ifIXsrSt11__is_scalarIT0_E7__valueEvE6__typeET_S8_RKS4_, symObjAddr: 0x29BC, symBinAddr: 0x100003144, symSize: 0x58 }
  - { offset: 0x20163, size: 0x8, addend: 0x0, symName: __ZNSt6vectorIS_IxSaIxEESaIS1_EEC1ERKS3_, symObjAddr: 0x28A8, symBinAddr: 0x100003030, symSize: 0x114 }
  - { offset: 0x20278, size: 0x8, addend: 0x0, symName: __ZSt7forwardIRKSt6vectorIS0_IxSaIxEESaIS2_EEEOT_RNSt16remove_referenceIS7_E4typeE, symObjAddr: 0x2894, symBinAddr: 0x10000301C, symSize: 0x14 }
  - { offset: 0x202D6, size: 0x8, addend: 0x0, symName: __ZNSt6vectorIxSaIxEEC1ERKS1_, symObjAddr: 0x2780, symBinAddr: 0x100002F08, symSize: 0x114 }
  - { offset: 0x203EB, size: 0x8, addend: 0x0, symName: __ZSt7forwardIRKSt6vectorIxSaIxEEEOT_RNSt16remove_referenceIS5_E4typeE, symObjAddr: 0x276C, symBinAddr: 0x100002EF4, symSize: 0x14 }
  - { offset: 0x2041D, size: 0x8, addend: 0x0, symName: __ZSt8__fill_aIPxxEvT_S1_RKT0_, symObjAddr: 0x273C, symBinAddr: 0x100002EC4, symSize: 0x30 }
  - { offset: 0x2047B, size: 0x8, addend: 0x0, symName: __ZSt10_ConstructISt6vectorIS0_IxSaIxEESaIS2_EEJRKS4_EEvPT_DpOT0_, symObjAddr: 0x26C0, symBinAddr: 0x100002E48, symSize: 0x7C }
  - { offset: 0x204C7, size: 0x8, addend: 0x0, symName: __ZSt10_ConstructISt6vectorIxSaIxEEJRKS2_EEvPT_DpOT0_, symObjAddr: 0x2644, symBinAddr: 0x100002DCC, symSize: 0x7C }
  - { offset: 0x20513, size: 0x8, addend: 0x0, symName: __ZSt10__fill_n_aIPxmxET_S1_T0_RKT1_St26random_access_iterator_tag, symObjAddr: 0x25E0, symBinAddr: 0x100002D68, symSize: 0x64 }
  - { offset: 0x205C9, size: 0x8, addend: 0x0, symName: __ZNSt4pairIxxEC1IxxLb1EEEv, symObjAddr: 0x25BC, symBinAddr: 0x100002D44, symSize: 0x24 }
  - { offset: 0x205FD, size: 0x8, addend: 0x0, symName: __ZSt18__do_uninit_fill_nIPSt6vectorIS0_IxSaIxEESaIS2_EEmS4_ET_S6_T0_RKT1_, symObjAddr: 0x252C, symBinAddr: 0x100002CB4, symSize: 0x90 }
  - { offset: 0x20679, size: 0x8, addend: 0x0, symName: __ZNSt15__new_allocatorISt6vectorIS0_IxSaIxEESaIS2_EEE8allocateEmPKv, symObjAddr: 0x249C, symBinAddr: 0x100002C24, symSize: 0x90 }
  - { offset: 0x20701, size: 0x8, addend: 0x0, symName: __ZSt18__do_uninit_fill_nIPSt6vectorIxSaIxEEmS2_ET_S4_T0_RKT1_, symObjAddr: 0x240C, symBinAddr: 0x100002B94, symSize: 0x90 }
  - { offset: 0x2077D, size: 0x8, addend: 0x0, symName: __ZNSt15__new_allocatorISt6vectorIxSaIxEEE8allocateEmPKv, symObjAddr: 0x237C, symBinAddr: 0x100002B04, symSize: 0x90 }
  - { offset: 0x20805, size: 0x8, addend: 0x0, symName: __ZSt6fill_nIPxmxET_S1_T0_RKT1_, symObjAddr: 0x2334, symBinAddr: 0x100002ABC, symSize: 0x48 }
  - { offset: 0x20891, size: 0x8, addend: 0x0, symName: __ZNSt15__new_allocatorIxE8allocateEmPKv, symObjAddr: 0x22B8, symBinAddr: 0x100002A40, symSize: 0x7C }
  - { offset: 0x20919, size: 0x8, addend: 0x0, symName: __ZSt10_ConstructISt4pairIxxEJEEvPT_DpOT0_, symObjAddr: 0x228C, symBinAddr: 0x100002A14, symSize: 0x2C }
  - { offset: 0x20955, size: 0x8, addend: 0x0, symName: __ZSt11__addressofISt4pairIxxEEPT_RS2_, symObjAddr: 0x2278, symBinAddr: 0x100002A00, symSize: 0x14 }
  - { offset: 0x2098B, size: 0x8, addend: 0x0, symName: __ZNSt15__new_allocatorISt4pairIxxEE8allocateEmPKv, symObjAddr: 0x21FC, symBinAddr: 0x100002984, symSize: 0x7C }
  - { offset: 0x20A13, size: 0x8, addend: 0x0, symName: __ZSt8_DestroyISt6vectorIS0_IxSaIxEESaIS2_EEEvPT_, symObjAddr: 0x21DC, symBinAddr: 0x100002964, symSize: 0x20 }
  - { offset: 0x20A45, size: 0x8, addend: 0x0, symName: __ZSt11__addressofISt6vectorIS0_IxSaIxEESaIS2_EEEPT_RS5_, symObjAddr: 0x21C8, symBinAddr: 0x100002950, symSize: 0x14 }
  - { offset: 0x20A77, size: 0x8, addend: 0x0, symName: __ZNSt22__uninitialized_fill_nILb0EE15__uninit_fill_nIPSt6vectorIS2_IxSaIxEESaIS4_EEmS6_EET_S8_T0_RKT1_, symObjAddr: 0x219C, symBinAddr: 0x100002924, symSize: 0x2C }
  - { offset: 0x20AE2, size: 0x8, addend: 0x0, symName: __ZNSt15__new_allocatorISt6vectorIS0_IxSaIxEESaIS2_EEE10deallocateEPS4_m, symObjAddr: 0x2160, symBinAddr: 0x1000028E8, symSize: 0x3C }
  - { offset: 0x20B62, size: 0x8, addend: 0x0, symName: __ZSt8_DestroyISt6vectorIxSaIxEEEvPT_, symObjAddr: 0x2140, symBinAddr: 0x1000028C8, symSize: 0x20 }
  - { offset: 0x20B94, size: 0x8, addend: 0x0, symName: __ZSt11__addressofISt6vectorIxSaIxEEEPT_RS3_, symObjAddr: 0x212C, symBinAddr: 0x1000028B4, symSize: 0x14 }
  - { offset: 0x20BC6, size: 0x8, addend: 0x0, symName: __ZNSt22__uninitialized_fill_nILb0EE15__uninit_fill_nIPSt6vectorIxSaIxEEmS4_EET_S6_T0_RKT1_, symObjAddr: 0x2100, symBinAddr: 0x100002888, symSize: 0x2C }
  - { offset: 0x20C31, size: 0x8, addend: 0x0, symName: __ZNSt15__new_allocatorISt6vectorIxSaIxEEE10deallocateEPS2_m, symObjAddr: 0x20C4, symBinAddr: 0x10000284C, symSize: 0x3C }
  - { offset: 0x20CB1, size: 0x8, addend: 0x0, symName: __ZNSt22__uninitialized_fill_nILb1EE15__uninit_fill_nIPxmxEET_S3_T0_RKT1_, symObjAddr: 0x2098, symBinAddr: 0x100002820, symSize: 0x2C }
  - { offset: 0x20D1C, size: 0x8, addend: 0x0, symName: __ZNSt15__new_allocatorIxE10deallocateEPxm, symObjAddr: 0x2068, symBinAddr: 0x1000027F0, symSize: 0x30 }
  - { offset: 0x20D9C, size: 0x8, addend: 0x0, symName: __ZNSt27__uninitialized_default_n_1ILb0EE18__uninit_default_nIPSt4pairIxxEmEET_S5_T0_, symObjAddr: 0x1FE0, symBinAddr: 0x100002768, symSize: 0x88 }
  - { offset: 0x20DFE, size: 0x8, addend: 0x0, symName: __ZNSt15__new_allocatorISt4pairIxxEE10deallocateEPS1_m, symObjAddr: 0x1FB0, symBinAddr: 0x100002738, symSize: 0x30 }
  - { offset: 0x20E7E, size: 0x8, addend: 0x0, symName: __ZNSt12_Destroy_auxILb0EE9__destroyIPSt6vectorIS2_IxSaIxEESaIS4_EEEEvT_S8_, symObjAddr: 0x1F64, symBinAddr: 0x1000026EC, symSize: 0x4C }
  - { offset: 0x20EC0, size: 0x8, addend: 0x0, symName: __ZSt20uninitialized_fill_nIPSt6vectorIS0_IxSaIxEESaIS2_EEmS4_ET_S6_T0_RKT1_, symObjAddr: 0x1F34, symBinAddr: 0x1000026BC, symSize: 0x30 }
  - { offset: 0x20F6E, size: 0x8, addend: 0x0, symName: __ZNSt12_Vector_baseISt6vectorIS0_IxSaIxEESaIS2_EESaIS4_EE11_M_allocateEm, symObjAddr: 0x1EE4, symBinAddr: 0x10000266C, symSize: 0x50 }
  - { offset: 0x20FF0, size: 0x8, addend: 0x0, symName: __ZNSt12_Vector_baseISt6vectorIS0_IxSaIxEESaIS2_EESaIS4_EE17_Vector_impl_dataC2Ev, symObjAddr: 0x1EB8, symBinAddr: 0x100002640, symSize: 0x2C }
  - { offset: 0x21043, size: 0x8, addend: 0x0, symName: __ZNSt12_Destroy_auxILb0EE9__destroyIPSt6vectorIxSaIxEEEEvT_S6_, symObjAddr: 0x1E6C, symBinAddr: 0x1000025F4, symSize: 0x4C }
  - { offset: 0x21085, size: 0x8, addend: 0x0, symName: __ZSt20uninitialized_fill_nIPSt6vectorIxSaIxEEmS2_ET_S4_T0_RKT1_, symObjAddr: 0x1E3C, symBinAddr: 0x1000025C4, symSize: 0x30 }
  - { offset: 0x21133, size: 0x8, addend: 0x0, symName: __ZNSt12_Vector_baseISt6vectorIxSaIxEESaIS2_EE11_M_allocateEm, symObjAddr: 0x1DEC, symBinAddr: 0x100002574, symSize: 0x50 }
  - { offset: 0x211B5, size: 0x8, addend: 0x0, symName: __ZNSt12_Vector_baseISt6vectorIxSaIxEESaIS2_EE17_Vector_impl_dataC2Ev, symObjAddr: 0x1DC0, symBinAddr: 0x100002548, symSize: 0x2C }
  - { offset: 0x21208, size: 0x8, addend: 0x0, symName: __ZNSt12_Destroy_auxILb1EE9__destroyIPxEEvT_S3_, symObjAddr: 0x1DA8, symBinAddr: 0x100002530, symSize: 0x18 }
  - { offset: 0x2123C, size: 0x8, addend: 0x0, symName: __ZSt20uninitialized_fill_nIPxmxET_S1_T0_RKT1_, symObjAddr: 0x1D74, symBinAddr: 0x1000024FC, symSize: 0x34 }
  - { offset: 0x212EA, size: 0x8, addend: 0x0, symName: __ZNSt12_Vector_baseIxSaIxEE11_M_allocateEm, symObjAddr: 0x1D24, symBinAddr: 0x1000024AC, symSize: 0x50 }
  - { offset: 0x2136C, size: 0x8, addend: 0x0, symName: __ZNSt12_Vector_baseIxSaIxEE17_Vector_impl_dataC2Ev, symObjAddr: 0x1CF8, symBinAddr: 0x100002480, symSize: 0x2C }
  - { offset: 0x213BF, size: 0x8, addend: 0x0, symName: __ZNSt12_Destroy_auxILb1EE9__destroyIPSt4pairIxxEEEvT_S5_, symObjAddr: 0x1CE0, symBinAddr: 0x100002468, symSize: 0x18 }
  - { offset: 0x213F3, size: 0x8, addend: 0x0, symName: __ZSt25__uninitialized_default_nIPSt4pairIxxEmET_S3_T0_, symObjAddr: 0x1CB4, symBinAddr: 0x10000243C, symSize: 0x2C }
  - { offset: 0x21487, size: 0x8, addend: 0x0, symName: __ZNSt12_Vector_baseISt4pairIxxESaIS1_EE11_M_allocateEm, symObjAddr: 0x1C64, symBinAddr: 0x1000023EC, symSize: 0x50 }
  - { offset: 0x21509, size: 0x8, addend: 0x0, symName: __ZNSt12_Vector_baseISt4pairIxxESaIS1_EE17_Vector_impl_dataC2Ev, symObjAddr: 0x1C38, symBinAddr: 0x1000023C0, symSize: 0x2C }
  - { offset: 0x2155C, size: 0x8, addend: 0x0, symName: __ZSt8_DestroyIPSt6vectorIS0_IxSaIxEESaIS2_EEEvT_S6_, symObjAddr: 0x1C10, symBinAddr: 0x100002398, symSize: 0x28 }
  - { offset: 0x2159E, size: 0x8, addend: 0x0, symName: __ZSt24__uninitialized_fill_n_aIPSt6vectorIS0_IxSaIxEESaIS2_EEmS4_S4_ET_S6_T0_RKT1_RSaIT2_E, symObjAddr: 0x1BE0, symBinAddr: 0x100002368, symSize: 0x30 }
  - { offset: 0x2161B, size: 0x8, addend: 0x0, symName: __ZNSt12_Vector_baseISt6vectorIS0_IxSaIxEESaIS2_EESaIS4_EE13_M_deallocateEPS4_m, symObjAddr: 0x1B88, symBinAddr: 0x100002310, symSize: 0x58 }
  - { offset: 0x2169D, size: 0x8, addend: 0x0, symName: __ZNSt12_Vector_baseISt6vectorIS0_IxSaIxEESaIS2_EESaIS4_EE17_M_create_storageEm, symObjAddr: 0x1B1C, symBinAddr: 0x1000022A4, symSize: 0x6C }
  - { offset: 0x216FF, size: 0x8, addend: 0x0, symName: __ZNSt12_Vector_baseISt6vectorIS0_IxSaIxEESaIS2_EESaIS4_EE12_Vector_implC1ERKS5_, symObjAddr: 0x1AD0, symBinAddr: 0x100002258, symSize: 0x4C }
  - { offset: 0x217A5, size: 0x8, addend: 0x0, symName: __ZNSt6vectorIS_IS_IxSaIxEESaIS1_EESaIS3_EE11_S_max_sizeERKS4_, symObjAddr: 0x1A74, symBinAddr: 0x1000021FC, symSize: 0x5C }
  - { offset: 0x2185C, size: 0x8, addend: 0x0, symName: __ZSt8_DestroyIPSt6vectorIxSaIxEEEvT_S4_, symObjAddr: 0x1A4C, symBinAddr: 0x1000021D4, symSize: 0x28 }
  - { offset: 0x2189E, size: 0x8, addend: 0x0, symName: __ZSt24__uninitialized_fill_n_aIPSt6vectorIxSaIxEEmS2_S2_ET_S4_T0_RKT1_RSaIT2_E, symObjAddr: 0x1A1C, symBinAddr: 0x1000021A4, symSize: 0x30 }
  - { offset: 0x2191B, size: 0x8, addend: 0x0, symName: __ZNSt12_Vector_baseISt6vectorIxSaIxEESaIS2_EE13_M_deallocateEPS2_m, symObjAddr: 0x19C4, symBinAddr: 0x10000214C, symSize: 0x58 }
  - { offset: 0x2199D, size: 0x8, addend: 0x0, symName: __ZNSt12_Vector_baseISt6vectorIxSaIxEESaIS2_EE17_M_create_storageEm, symObjAddr: 0x1958, symBinAddr: 0x1000020E0, symSize: 0x6C }
  - { offset: 0x219FF, size: 0x8, addend: 0x0, symName: __ZNSt12_Vector_baseISt6vectorIxSaIxEESaIS2_EE12_Vector_implC1ERKS3_, symObjAddr: 0x190C, symBinAddr: 0x100002094, symSize: 0x4C }
  - { offset: 0x21AA5, size: 0x8, addend: 0x0, symName: __ZNSt6vectorIS_IxSaIxEESaIS1_EE11_S_max_sizeERKS2_, symObjAddr: 0x18B0, symBinAddr: 0x100002038, symSize: 0x5C }
  - { offset: 0x21B5C, size: 0x8, addend: 0x0, symName: __ZSt8_DestroyIPxEvT_S1_, symObjAddr: 0x1888, symBinAddr: 0x100002010, symSize: 0x28 }
  - { offset: 0x21B9E, size: 0x8, addend: 0x0, symName: __ZSt24__uninitialized_fill_n_aIPxmxxET_S1_T0_RKT1_RSaIT2_E, symObjAddr: 0x1858, symBinAddr: 0x100001FE0, symSize: 0x30 }
  - { offset: 0x21C1B, size: 0x8, addend: 0x0, symName: __ZNSt12_Vector_baseIxSaIxEE13_M_deallocateEPxm, symObjAddr: 0x1800, symBinAddr: 0x100001F88, symSize: 0x58 }
  - { offset: 0x21C9D, size: 0x8, addend: 0x0, symName: __ZNSt12_Vector_baseIxSaIxEE17_M_create_storageEm, symObjAddr: 0x17A0, symBinAddr: 0x100001F28, symSize: 0x60 }
  - { offset: 0x21CFF, size: 0x8, addend: 0x0, symName: __ZNSt12_Vector_baseIxSaIxEE12_Vector_implC1ERKS0_, symObjAddr: 0x1754, symBinAddr: 0x100001EDC, symSize: 0x4C }
  - { offset: 0x21DA5, size: 0x8, addend: 0x0, symName: __ZNSt6vectorIxSaIxEE11_S_max_sizeERKS0_, symObjAddr: 0x1700, symBinAddr: 0x100001E88, symSize: 0x54 }
  - { offset: 0x21E5C, size: 0x8, addend: 0x0, symName: __ZSt8_DestroyIPSt4pairIxxEEvT_S3_, symObjAddr: 0x16D8, symBinAddr: 0x100001E60, symSize: 0x28 }
  - { offset: 0x21E9E, size: 0x8, addend: 0x0, symName: __ZSt27__uninitialized_default_n_aIPSt4pairIxxEmS1_ET_S3_T0_RSaIT1_E, symObjAddr: 0x16B0, symBinAddr: 0x100001E38, symSize: 0x28 }
  - { offset: 0x21F01, size: 0x8, addend: 0x0, symName: __ZNSt12_Vector_baseISt4pairIxxESaIS1_EE13_M_deallocateEPS1_m, symObjAddr: 0x1658, symBinAddr: 0x100001DE0, symSize: 0x58 }
  - { offset: 0x21F83, size: 0x8, addend: 0x0, symName: __ZNSt12_Vector_baseISt4pairIxxESaIS1_EE17_M_create_storageEm, symObjAddr: 0x15F8, symBinAddr: 0x100001D80, symSize: 0x60 }
  - { offset: 0x21FE5, size: 0x8, addend: 0x0, symName: __ZNSt12_Vector_baseISt4pairIxxESaIS1_EE12_Vector_implC1ERKS2_, symObjAddr: 0x15AC, symBinAddr: 0x100001D34, symSize: 0x4C }
  - { offset: 0x2208B, size: 0x8, addend: 0x0, symName: __ZNSt6vectorISt4pairIxxESaIS1_EE11_S_max_sizeERKS2_, symObjAddr: 0x1558, symBinAddr: 0x100001CE0, symSize: 0x54 }
  - { offset: 0x22181, size: 0x8, addend: 0x0, symName: __ZNSt12_Vector_baseISt6vectorIS0_IxSaIxEESaIS2_EESaIS4_EE19_M_get_Tp_allocatorEv, symObjAddr: 0x1544, symBinAddr: 0x100001CCC, symSize: 0x14 }
  - { offset: 0x221AB, size: 0x8, addend: 0x0, symName: __ZNSt6vectorIS_IS_IxSaIxEESaIS1_EESaIS3_EE18_M_fill_initializeEmRKS3_, symObjAddr: 0x14EC, symBinAddr: 0x100001C74, symSize: 0x58 }
  - { offset: 0x2221B, size: 0x8, addend: 0x0, symName: __ZNSt12_Vector_baseISt6vectorIS0_IxSaIxEESaIS2_EESaIS4_EED2Ev, symObjAddr: 0x1490, symBinAddr: 0x100001C18, symSize: 0x5C }
  - { offset: 0x22277, size: 0x8, addend: 0x0, symName: __ZNSt12_Vector_baseISt6vectorIS0_IxSaIxEESaIS2_EESaIS4_EEC2EmRKS5_, symObjAddr: 0x143C, symBinAddr: 0x100001BC4, symSize: 0x54 }
  - { offset: 0x222D6, size: 0x8, addend: 0x0, symName: __ZNSt12_Vector_baseISt6vectorIS0_IxSaIxEESaIS2_EESaIS4_EE12_Vector_implD1Ev, symObjAddr: 0x1410, symBinAddr: 0x100001B98, symSize: 0x2C }
  - { offset: 0x2231B, size: 0x8, addend: 0x0, symName: __ZNSt6vectorIS_IS_IxSaIxEESaIS1_EESaIS3_EE17_S_check_init_lenEmRKS4_, symObjAddr: 0x138C, symBinAddr: 0x100001B14, symSize: 0x84 }
  - { offset: 0x223F5, size: 0x8, addend: 0x0, symName: __ZNSt15__new_allocatorISt6vectorIS0_IxSaIxEESaIS2_EEED2Ev, symObjAddr: 0x1378, symBinAddr: 0x100001B00, symSize: 0x14 }
  - { offset: 0x2246C, size: 0x8, addend: 0x0, symName: __ZNSt12_Vector_baseISt6vectorIxSaIxEESaIS2_EE19_M_get_Tp_allocatorEv, symObjAddr: 0x1364, symBinAddr: 0x100001AEC, symSize: 0x14 }
  - { offset: 0x22496, size: 0x8, addend: 0x0, symName: __ZNSt6vectorIS_IxSaIxEESaIS1_EE18_M_fill_initializeEmRKS1_, symObjAddr: 0x130C, symBinAddr: 0x100001A94, symSize: 0x58 }
  - { offset: 0x22506, size: 0x8, addend: 0x0, symName: __ZNSt12_Vector_baseISt6vectorIxSaIxEESaIS2_EED2Ev, symObjAddr: 0x12B0, symBinAddr: 0x100001A38, symSize: 0x5C }
  - { offset: 0x22562, size: 0x8, addend: 0x0, symName: __ZNSt12_Vector_baseISt6vectorIxSaIxEESaIS2_EEC2EmRKS3_, symObjAddr: 0x125C, symBinAddr: 0x1000019E4, symSize: 0x54 }
  - { offset: 0x225C1, size: 0x8, addend: 0x0, symName: __ZNSt12_Vector_baseISt6vectorIxSaIxEESaIS2_EE12_Vector_implD1Ev, symObjAddr: 0x1230, symBinAddr: 0x1000019B8, symSize: 0x2C }
  - { offset: 0x22606, size: 0x8, addend: 0x0, symName: __ZNSt6vectorIS_IxSaIxEESaIS1_EE17_S_check_init_lenEmRKS2_, symObjAddr: 0x11AC, symBinAddr: 0x100001934, symSize: 0x84 }
  - { offset: 0x226E0, size: 0x8, addend: 0x0, symName: __ZNSt15__new_allocatorISt6vectorIxSaIxEEED2Ev, symObjAddr: 0x1198, symBinAddr: 0x100001920, symSize: 0x14 }
  - { offset: 0x22757, size: 0x8, addend: 0x0, symName: __ZNSt12_Vector_baseIxSaIxEE19_M_get_Tp_allocatorEv, symObjAddr: 0x1184, symBinAddr: 0x10000190C, symSize: 0x14 }
  - { offset: 0x22781, size: 0x8, addend: 0x0, symName: __ZNSt6vectorIxSaIxEE18_M_fill_initializeEmRKx, symObjAddr: 0x112C, symBinAddr: 0x1000018B4, symSize: 0x58 }
  - { offset: 0x227F1, size: 0x8, addend: 0x0, symName: __ZNSt12_Vector_baseIxSaIxEED2Ev, symObjAddr: 0x10DC, symBinAddr: 0x100001864, symSize: 0x50 }
  - { offset: 0x2284D, size: 0x8, addend: 0x0, symName: __ZNSt12_Vector_baseIxSaIxEEC2EmRKS0_, symObjAddr: 0x1088, symBinAddr: 0x100001810, symSize: 0x54 }
  - { offset: 0x228AC, size: 0x8, addend: 0x0, symName: __ZNSt12_Vector_baseIxSaIxEE12_Vector_implD1Ev, symObjAddr: 0x105C, symBinAddr: 0x1000017E4, symSize: 0x2C }
  - { offset: 0x228F1, size: 0x8, addend: 0x0, symName: __ZNSt6vectorIxSaIxEE17_S_check_init_lenEmRKS0_, symObjAddr: 0xFD8, symBinAddr: 0x100001760, symSize: 0x84 }
  - { offset: 0x229CB, size: 0x8, addend: 0x0, symName: __ZNSt15__new_allocatorIxED2Ev, symObjAddr: 0xFC4, symBinAddr: 0x10000174C, symSize: 0x14 }
  - { offset: 0x22A42, size: 0x8, addend: 0x0, symName: __ZNSt12_Vector_baseISt4pairIxxESaIS1_EE19_M_get_Tp_allocatorEv, symObjAddr: 0xFB0, symBinAddr: 0x100001738, symSize: 0x14 }
  - { offset: 0x22A6C, size: 0x8, addend: 0x0, symName: __ZNSt6vectorISt4pairIxxESaIS1_EE21_M_default_initializeEm, symObjAddr: 0xF60, symBinAddr: 0x1000016E8, symSize: 0x50 }
  - { offset: 0x22ACB, size: 0x8, addend: 0x0, symName: __ZNSt12_Vector_baseISt4pairIxxESaIS1_EED2Ev, symObjAddr: 0xF10, symBinAddr: 0x100001698, symSize: 0x50 }
  - { offset: 0x22B27, size: 0x8, addend: 0x0, symName: __ZNSt12_Vector_baseISt4pairIxxESaIS1_EEC2EmRKS2_, symObjAddr: 0xEBC, symBinAddr: 0x100001644, symSize: 0x54 }
  - { offset: 0x22B86, size: 0x8, addend: 0x0, symName: __ZNSt12_Vector_baseISt4pairIxxESaIS1_EE12_Vector_implD1Ev, symObjAddr: 0xE90, symBinAddr: 0x100001618, symSize: 0x2C }
  - { offset: 0x22BCB, size: 0x8, addend: 0x0, symName: __ZNSt6vectorISt4pairIxxESaIS1_EE17_S_check_init_lenEmRKS2_, symObjAddr: 0xE0C, symBinAddr: 0x100001594, symSize: 0x84 }
  - { offset: 0x22CA5, size: 0x8, addend: 0x0, symName: __ZNSt15__new_allocatorISt4pairIxxEED2Ev, symObjAddr: 0xDF8, symBinAddr: 0x100001580, symSize: 0x14 }
  - { offset: 0x22CDD, size: 0x8, addend: 0x0, symName: __ZSt3minIxERKT_S2_S2_, symObjAddr: 0xDC0, symBinAddr: 0x100001548, symSize: 0x38 }
  - { offset: 0x22D23, size: 0x8, addend: 0x0, symName: __ZNSt6vectorIxSaIxEEixEm, symObjAddr: 0xD98, symBinAddr: 0x100001520, symSize: 0x28 }
  - { offset: 0x22D5E, size: 0x8, addend: 0x0, symName: __ZNSt6vectorIS_IxSaIxEESaIS1_EEixEm, symObjAddr: 0xD64, symBinAddr: 0x1000014EC, symSize: 0x34 }
  - { offset: 0x22D99, size: 0x8, addend: 0x0, symName: __ZNSt6vectorIS_IS_IxSaIxEESaIS1_EESaIS3_EEixEm, symObjAddr: 0xD30, symBinAddr: 0x1000014B8, symSize: 0x34 }
  - { offset: 0x22DD4, size: 0x8, addend: 0x0, symName: __ZNSt6vectorISt4pairIxxESaIS1_EEixEm, symObjAddr: 0xD08, symBinAddr: 0x100001490, symSize: 0x28 }
  - { offset: 0x22E33, size: 0x8, addend: 0x0, symName: __ZNSt6vectorIS_IS_IxSaIxEESaIS1_EESaIS3_EED1Ev, symObjAddr: 0xCAC, symBinAddr: 0x100001434, symSize: 0x5C }
  - { offset: 0x22ED3, size: 0x8, addend: 0x0, symName: __ZNSt6vectorIS_IS_IxSaIxEESaIS1_EESaIS3_EEC1EmRKS3_RKS4_, symObjAddr: 0xC3C, symBinAddr: 0x1000013C4, symSize: 0x70 }
  - { offset: 0x22F6E, size: 0x8, addend: 0x0, symName: __ZNSt6vectorIS_IxSaIxEESaIS1_EED1Ev, symObjAddr: 0xBE0, symBinAddr: 0x100001368, symSize: 0x5C }
  - { offset: 0x2300E, size: 0x8, addend: 0x0, symName: __ZNSt6vectorIS_IxSaIxEESaIS1_EEC1EmRKS1_RKS2_, symObjAddr: 0xB70, symBinAddr: 0x1000012F8, symSize: 0x70 }
  - { offset: 0x230A9, size: 0x8, addend: 0x0, symName: __ZNSt6vectorIxSaIxEED1Ev, symObjAddr: 0xB14, symBinAddr: 0x10000129C, symSize: 0x5C }
  - { offset: 0x23149, size: 0x8, addend: 0x0, symName: __ZNSt6vectorIxSaIxEEC1EmRKxRKS0_, symObjAddr: 0xAA4, symBinAddr: 0x10000122C, symSize: 0x70 }
  - { offset: 0x231E4, size: 0x8, addend: 0x0, symName: __ZNSt6vectorISt4pairIxxESaIS1_EED1Ev, symObjAddr: 0xA48, symBinAddr: 0x1000011D0, symSize: 0x5C }
  - { offset: 0x23276, size: 0x8, addend: 0x0, symName: __ZNSt6vectorISt4pairIxxESaIS1_EEC1EmRKS2_, symObjAddr: 0x9E0, symBinAddr: 0x100001168, symSize: 0x68 }
  - { offset: 0x232E7, size: 0x8, addend: 0x0, symName: _main, symObjAddr: 0x114, symBinAddr: 0x10000089C, symSize: 0x8CC }
  - { offset: 0x23708, size: 0x8, addend: 0x0, symName: __Z5kosztSt4pairIxxES0_, symObjAddr: 0x98, symBinAddr: 0x100000820, symSize: 0x7C }
  - { offset: 0x23751, size: 0x8, addend: 0x0, symName: __ZSt3minImERKT_S2_S2_, symObjAddr: 0x60, symBinAddr: 0x1000007E8, symSize: 0x38 }
  - { offset: 0x2379A, size: 0x8, addend: 0x0, symName: __ZdlPvS_, symObjAddr: 0x48, symBinAddr: 0x1000007D0, symSize: 0x18 }
  - { offset: 0x237D0, size: 0x8, addend: 0x0, symName: __ZnwmPv, symObjAddr: 0x30, symBinAddr: 0x1000007B8, symSize: 0x18 }
  - { offset: 0x23802, size: 0x8, addend: 0x0, symName: __ZSt17__size_to_integerm, symObjAddr: 0x1C, symBinAddr: 0x1000007A4, symSize: 0x14 }
  - { offset: 0x2382C, size: 0x8, addend: 0x0, symName: __ZSt3absx, symObjAddr: 0x0, symBinAddr: 0x100000788, symSize: 0x1C }
...
